	.section	__TEXT,__text,regular,pure_instructions
	.build_version macos, 10, 14	sdk_version 10, 14
	.globl	__Z9recursiveii         ## -- Begin function _Z9recursiveii
	.p2align	4, 0x90
__Z9recursiveii:                        ## @_Z9recursiveii
	.cfi_startproc
## %bb.0:
	pushq	%rbp
	.cfi_def_cfa_offset 16
	.cfi_offset %rbp, -16
	movq	%rsp, %rbp
	.cfi_def_cfa_register %rbp
	movl	$1, %eax
	popq	%rbp
	retq
	.cfi_endproc
                                        ## -- End function
	.globl	_main                   ## -- Begin function main
	.p2align	4, 0x90
_main:                                  ## @main
	.cfi_startproc
## %bb.0:
	pushq	%rbp
	.cfi_def_cfa_offset 16
	.cfi_offset %rbp, -16
	movq	%rsp, %rbp
	.cfi_def_cfa_register %rbp
	movq	__ZNSt3__14coutE@GOTPCREL(%rip), %rdi
	movl	$1, %esi
	callq	__ZNSt3__113basic_ostreamIcNS_11char_traitsIcEEElsEi
	movq	%rax, %rdi
	callq	__ZNSt3__113basic_ostreamIcNS_11char_traitsIcEEElsEPFRS3_S4_E
	xorl	%eax, %eax
	popq	%rbp
	retq
	.cfi_endproc
                                        ## -- End function
	.p2align	4, 0x90         ## -- Begin function _ZNSt3__113basic_ostreamIcNS_11char_traitsIcEEElsEPFRS3_S4_E
__ZNSt3__113basic_ostreamIcNS_11char_traitsIcEEElsEPFRS3_S4_E: ## @_ZNSt3__113basic_ostreamIcNS_11char_traitsIcEEElsEPFRS3_S4_E
	.cfi_startproc
## %bb.0:
	pushq	%rbp
	.cfi_def_cfa_offset 16
	.cfi_offset %rbp, -16
	movq	%rsp, %rbp
	.cfi_def_cfa_register %rbp
	popq	%rbp
	jmp	__ZNSt3__1L4endlIcNS_11char_traitsIcEEEERNS_13basic_ostreamIT_T0_EES7_ ## TAILCALL
	.cfi_endproc
                                        ## -- End function
	.p2align	4, 0x90         ## -- Begin function _ZNSt3__1L4endlIcNS_11char_traitsIcEEEERNS_13basic_ostreamIT_T0_EES7_
__ZNSt3__1L4endlIcNS_11char_traitsIcEEEERNS_13basic_ostreamIT_T0_EES7_: ## @_ZNSt3__1L4endlIcNS_11char_traitsIcEEEERNS_13basic_ostreamIT_T0_EES7_
	.cfi_startproc
## %bb.0:
	pushq	%rbp
	.cfi_def_cfa_offset 16
	.cfi_offset %rbp, -16
	movq	%rsp, %rbp
	.cfi_def_cfa_register %rbp
	pushq	%rbx
	pushq	%rax
	.cfi_offset %rbx, -24
	movq	%rdi, %rbx
	movq	(%rdi), %rax
	movq	-24(%rax), %rdi
	addq	%rbx, %rdi
	callq	__ZNKSt3__19basic_iosIcNS_11char_traitsIcEEE5widenEc
	movsbl	%al, %esi
	movq	%rbx, %rdi
	callq	__ZNSt3__113basic_ostreamIcNS_11char_traitsIcEEE3putEc
	movq	%rbx, %rdi
	callq	__ZNSt3__113basic_ostreamIcNS_11char_traitsIcEEE5flushEv
	movq	%rbx, %rax
	addq	$8, %rsp
	popq	%rbx
	popq	%rbp
	retq
	.cfi_endproc
                                        ## -- End function
	.p2align	4, 0x90         ## -- Begin function _ZNKSt3__19basic_iosIcNS_11char_traitsIcEEE5widenEc
__ZNKSt3__19basic_iosIcNS_11char_traitsIcEEE5widenEc: ## @_ZNKSt3__19basic_iosIcNS_11char_traitsIcEEE5widenEc
Lfunc_begin0:
	.cfi_startproc
	.cfi_personality 155, ___gxx_personality_v0
	.cfi_lsda 16, Lexception0
## %bb.0:
	pushq	%rbp
	.cfi_def_cfa_offset 16
	.cfi_offset %rbp, -16
	movq	%rsp, %rbp
	.cfi_def_cfa_register %rbp
	pushq	%rbx
	pushq	%rax
	.cfi_offset %rbx, -24
	movq	%rdi, %rax
	leaq	-16(%rbp), %rbx
	movq	%rbx, %rdi
	movq	%rax, %rsi
	callq	__ZNKSt3__18ios_base6getlocEv
Ltmp0:
	movq	%rbx, %rdi
	callq	__ZNSt3__1L9use_facetINS_5ctypeIcEEEERKT_RKNS_6localeE
Ltmp1:
## %bb.1:
Ltmp2:
	movq	%rax, %rdi
	callq	__ZNKSt3__15ctypeIcE5widenEc
Ltmp3:
## %bb.2:
	movl	%eax, %ebx
	leaq	-16(%rbp), %rdi
	callq	__ZNSt3__16localeD1Ev
	movsbl	%bl, %eax
	addq	$8, %rsp
	popq	%rbx
	popq	%rbp
	retq
LBB4_3:
Ltmp4:
	movq	%rax, %rbx
	leaq	-16(%rbp), %rdi
	callq	__ZNSt3__16localeD1Ev
	movq	%rbx, %rdi
	callq	__Unwind_Resume
	ud2
Lfunc_end0:
	.cfi_endproc
	.section	__TEXT,__gcc_except_tab
	.p2align	2
GCC_except_table4:
Lexception0:
	.byte	255                     ## @LPStart Encoding = omit
	.byte	255                     ## @TType Encoding = omit
	.byte	1                       ## Call site Encoding = uleb128
	.uleb128 Lcst_end0-Lcst_begin0
Lcst_begin0:
	.uleb128 Lfunc_begin0-Lfunc_begin0 ## >> Call Site 1 <<
	.uleb128 Ltmp0-Lfunc_begin0     ##   Call between Lfunc_begin0 and Ltmp0
	.byte	0                       ##     has no landing pad
	.byte	0                       ##   On action: cleanup
	.uleb128 Ltmp0-Lfunc_begin0     ## >> Call Site 2 <<
	.uleb128 Ltmp3-Ltmp0            ##   Call between Ltmp0 and Ltmp3
	.uleb128 Ltmp4-Lfunc_begin0     ##     jumps to Ltmp4
	.byte	0                       ##   On action: cleanup
	.uleb128 Ltmp3-Lfunc_begin0     ## >> Call Site 3 <<
	.uleb128 Lfunc_end0-Ltmp3       ##   Call between Ltmp3 and Lfunc_end0
	.byte	0                       ##     has no landing pad
	.byte	0                       ##   On action: cleanup
Lcst_end0:
	.p2align	2
                                        ## -- End function
	.section	__TEXT,__text,regular,pure_instructions
	.p2align	4, 0x90         ## -- Begin function _ZNSt3__1L9use_facetINS_5ctypeIcEEEERKT_RKNS_6localeE
__ZNSt3__1L9use_facetINS_5ctypeIcEEEERKT_RKNS_6localeE: ## @_ZNSt3__1L9use_facetINS_5ctypeIcEEEERKT_RKNS_6localeE
	.cfi_startproc
## %bb.0:
	pushq	%rbp
	.cfi_def_cfa_offset 16
	.cfi_offset %rbp, -16
	movq	%rsp, %rbp
	.cfi_def_cfa_register %rbp
	movq	__ZNSt3__15ctypeIcE2idE@GOTPCREL(%rip), %rsi
	callq	__ZNKSt3__16locale9use_facetERNS0_2idE
	popq	%rbp
	retq
	.cfi_endproc
                                        ## -- End function
	.p2align	4, 0x90         ## -- Begin function _ZNKSt3__15ctypeIcE5widenEc
__ZNKSt3__15ctypeIcE5widenEc:           ## @_ZNKSt3__15ctypeIcE5widenEc
	.cfi_startproc
## %bb.0:
	pushq	%rbp
	.cfi_def_cfa_offset 16
	.cfi_offset %rbp, -16
	movq	%rsp, %rbp
	.cfi_def_cfa_register %rbp
	movq	(%rdi), %rax
	movq	56(%rax), %rax
	movl	$10, %esi
	popq	%rbp
	jmpq	*%rax                   ## TAILCALL
	.cfi_endproc
                                        ## -- End function

.subsections_via_symbols
